target datalayout = "e-m:e-p270:32:32-p271:32:32-p272:64:64-i64:64-i128:128-f80:128-n8:16:32:64-S128"
target triple = "x86_64-pc-linux-gnu"

%struct.sentinelRedisInstance = type { i32, ptr, ptr, i64, ptr, ptr, i64, i64, i64, i64, i64, i64, i64, i64, i64, ptr, i32, i64, i64, ptr, ptr, i32, i32, ptr, ptr, i64, i32, i32, i64, ptr, ptr, i32, i32, i64, ptr, i64, i64, i32, i64, i64, i64, i64, ptr, ptr, ptr, ptr }
%struct.instanceLink = type { i32, i32, i32, ptr, ptr, i64, i64, i64, i64, i64, i64, i64, i64 }

@sentinel_ping_period = internal global i64 1000, align 8
@sentinel_info_period = internal global i64 10000, align 8
@sentinel_publish_period = internal global i64 2000, align 8
@.str.204 = private unnamed_addr constant [3 x i8] c"%s\00", align 1
@.str.206 = private unnamed_addr constant [5 x i8] c"INFO\00", align 1

; Function Attrs: nounwind uwtable
define dso_local ptr @sentinelInstanceMapCommand(ptr noundef %0, ptr noundef %1) #0 {
  %3 = alloca ptr, align 8
  %4 = alloca ptr, align 8
  %5 = alloca ptr, align 8
  %6 = alloca ptr, align 8
  store ptr %0, ptr %3, align 8, !tbaa !11
  store ptr %1, ptr %4, align 8, !tbaa !93
  call void @llvm.lifetime.start.p0(i64 8, ptr %5) #16
  %7 = load ptr, ptr %4, align 8, !tbaa !93
  %8 = call ptr @sdsnew(ptr noundef %7)
  store ptr %8, ptr %5, align 8, !tbaa !93
  %9 = load ptr, ptr %3, align 8, !tbaa !11
  %10 = getelementptr inbounds nuw %struct.sentinelRedisInstance, ptr %9, i32 0, i32 29
  %11 = load ptr, ptr %10, align 8, !tbaa !35
  %12 = icmp ne ptr %11, null
  br i1 %12, label %13, label %17

13:                                               ; preds = %2
  %14 = load ptr, ptr %3, align 8, !tbaa !11
  %15 = getelementptr inbounds nuw %struct.sentinelRedisInstance, ptr %14, i32 0, i32 29
  %16 = load ptr, ptr %15, align 8, !tbaa !35
  store ptr %16, ptr %3, align 8, !tbaa !11
  br label %17

17:                                               ; preds = %13, %2
  call void @llvm.lifetime.start.p0(i64 8, ptr %6) #16
  %18 = load ptr, ptr %3, align 8, !tbaa !11
  %19 = getelementptr inbounds nuw %struct.sentinelRedisInstance, ptr %18, i32 0, i32 15
  %20 = load ptr, ptr %19, align 8, !tbaa !33
  %21 = load ptr, ptr %5, align 8, !tbaa !93
  %22 = call ptr @dictFetchValue(ptr noundef %20, ptr noundef %21)
  store ptr %22, ptr %6, align 8, !tbaa !93
  %23 = load ptr, ptr %5, align 8, !tbaa !93
  call void @sdsfree(ptr noundef %23)
  %24 = load ptr, ptr %6, align 8, !tbaa !93
  %25 = icmp ne ptr %24, null
  br i1 %25, label %26, label %28

26:                                               ; preds = %17
  %27 = load ptr, ptr %6, align 8, !tbaa !93
  br label %30

28:                                               ; preds = %17
  %29 = load ptr, ptr %4, align 8, !tbaa !93
  br label %30

30:                                               ; preds = %28, %26
  %31 = phi ptr [ %27, %26 ], [ %29, %28 ]
  call void @llvm.lifetime.end.p0(i64 8, ptr %6) #16
  call void @llvm.lifetime.end.p0(i64 8, ptr %5) #16
  ret ptr %31
}

; Function Attrs: nounwind uwtable
define dso_local void @sentinelSendPeriodicCommands(ptr noundef %0) #0 {
  %2 = alloca ptr, align 8
  %3 = alloca i64, align 8
  %4 = alloca i64, align 8
  %5 = alloca i64, align 8
  %6 = alloca i32, align 4
  %7 = alloca i32, align 4
  store ptr %0, ptr %2, align 8, !tbaa !11
  call void @llvm.lifetime.start.p0(i64 8, ptr %3) #16
  %8 = call i64 @mstime()
  store i64 %8, ptr %3, align 8, !tbaa !119
  call void @llvm.lifetime.start.p0(i64 8, ptr %4) #16
  call void @llvm.lifetime.start.p0(i64 8, ptr %5) #16
  call void @llvm.lifetime.start.p0(i64 4, ptr %6) #16
  %9 = load ptr, ptr %2, align 8, !tbaa !11
  %10 = getelementptr inbounds nuw %struct.sentinelRedisInstance, ptr %9, i32 0, i32 5
  %11 = load ptr, ptr %10, align 8, !tbaa !22
  %12 = getelementptr inbounds nuw %struct.instanceLink, ptr %11, i32 0, i32 1
  %13 = load i32, ptr %12, align 4, !tbaa !133
  %14 = icmp ne i32 %13, 0
  br i1 %14, label %15, label %16

15:                                               ; preds = %1
  store i32 1, ptr %7, align 4
  br label %136

16:                                               ; preds = %1
  %17 = load ptr, ptr %2, align 8, !tbaa !11
  %18 = getelementptr inbounds nuw %struct.sentinelRedisInstance, ptr %17, i32 0, i32 5
  %19 = load ptr, ptr %18, align 8, !tbaa !22
  %20 = getelementptr inbounds nuw %struct.instanceLink, ptr %19, i32 0, i32 2
  %21 = load i32, ptr %20, align 8, !tbaa !134
  %22 = load ptr, ptr %2, align 8, !tbaa !11
  %23 = getelementptr inbounds nuw %struct.sentinelRedisInstance, ptr %22, i32 0, i32 5
  %24 = load ptr, ptr %23, align 8, !tbaa !22
  %25 = getelementptr inbounds nuw %struct.instanceLink, ptr %24, i32 0, i32 0
  %26 = load i32, ptr %25, align 8, !tbaa !130
  %27 = mul nsw i32 100, %26
  %28 = icmp sge i32 %21, %27
  br i1 %28, label %29, label %30

29:                                               ; preds = %16
  store i32 1, ptr %7, align 4
  br label %136

30:                                               ; preds = %16
  %31 = load ptr, ptr %2, align 8, !tbaa !11
  %32 = getelementptr inbounds nuw %struct.sentinelRedisInstance, ptr %31, i32 0, i32 0
  %33 = load i32, ptr %32, align 8, !tbaa !34
  %34 = and i32 %33, 2
  %35 = icmp ne i32 %34, 0
  br i1 %35, label %36, label %50

36:                                               ; preds = %30
  %37 = load ptr, ptr %2, align 8, !tbaa !11
  %38 = getelementptr inbounds nuw %struct.sentinelRedisInstance, ptr %37, i32 0, i32 29
  %39 = load ptr, ptr %38, align 8, !tbaa !35
  %40 = getelementptr inbounds nuw %struct.sentinelRedisInstance, ptr %39, i32 0, i32 0
  %41 = load i32, ptr %40, align 8, !tbaa !34
  %42 = and i32 %41, 80
  %43 = icmp ne i32 %42, 0
  br i1 %43, label %49, label %44

44:                                               ; preds = %36
  %45 = load ptr, ptr %2, align 8, !tbaa !11
  %46 = getelementptr inbounds nuw %struct.sentinelRedisInstance, ptr %45, i32 0, i32 25
  %47 = load i64, ptr %46, align 8, !tbaa !182
  %48 = icmp ne i64 %47, 0
  br i1 %48, label %49, label %50

49:                                               ; preds = %44, %36
  store i64 1000, ptr %4, align 8, !tbaa !119
  br label %52

50:                                               ; preds = %44, %30
  %51 = load i64, ptr @sentinel_info_period, align 8, !tbaa !119
  store i64 %51, ptr %4, align 8, !tbaa !119
  br label %52

52:                                               ; preds = %50, %49
  %53 = load ptr, ptr %2, align 8, !tbaa !11
  %54 = getelementptr inbounds nuw %struct.sentinelRedisInstance, ptr %53, i32 0, i32 11
  %55 = load i64, ptr %54, align 8, !tbaa !180
  store i64 %55, ptr %5, align 8, !tbaa !119
  %56 = load i64, ptr %5, align 8, !tbaa !119
  %57 = load i64, ptr @sentinel_ping_period, align 8, !tbaa !119
  %58 = icmp sgt i64 %56, %57
  br i1 %58, label %59, label %61

59:                                               ; preds = %52
  %60 = load i64, ptr @sentinel_ping_period, align 8, !tbaa !119
  store i64 %60, ptr %5, align 8, !tbaa !119
  br label %61

61:                                               ; preds = %59, %52
  %62 = load ptr, ptr %2, align 8, !tbaa !11
  %63 = getelementptr inbounds nuw %struct.sentinelRedisInstance, ptr %62, i32 0, i32 0
  %64 = load i32, ptr %63, align 8, !tbaa !34
  %65 = and i32 %64, 4
  %66 = icmp eq i32 %65, 0
  br i1 %66, label %67, label %100

67:                                               ; preds = %61
  %68 = load ptr, ptr %2, align 8, !tbaa !11
  %69 = getelementptr inbounds nuw %struct.sentinelRedisInstance, ptr %68, i32 0, i32 14
  %70 = load i64, ptr %69, align 8, !tbaa !190
  %71 = icmp eq i64 %70, 0
  br i1 %71, label %80, label %72

72:                                               ; preds = %67
  %73 = load i64, ptr %3, align 8, !tbaa !119
  %74 = load ptr, ptr %2, align 8, !tbaa !11
  %75 = getelementptr inbounds nuw %struct.sentinelRedisInstance, ptr %74, i32 0, i32 14
  %76 = load i64, ptr %75, align 8, !tbaa !190
  %77 = sub nsw i64 %73, %76
  %78 = load i64, ptr %4, align 8, !tbaa !119
  %79 = icmp sgt i64 %77, %78
  br i1 %79, label %80, label %100

80:                                               ; preds = %72, %67
  %81 = load ptr, ptr %2, align 8, !tbaa !11
  %82 = getelementptr inbounds nuw %struct.sentinelRedisInstance, ptr %81, i32 0, i32 5
  %83 = load ptr, ptr %82, align 8, !tbaa !22
  %84 = getelementptr inbounds nuw %struct.instanceLink, ptr %83, i32 0, i32 3
  %85 = load ptr, ptr %84, align 8, !tbaa !135
  %86 = load ptr, ptr %2, align 8, !tbaa !11
  %87 = load ptr, ptr %2, align 8, !tbaa !11
  %88 = call ptr @sentinelInstanceMapCommand(ptr noundef %87, ptr noundef @.str.206)
  %89 = call i32 (ptr, ptr, ptr, ptr, ...) @redisAsyncCommand(ptr noundef %85, ptr noundef @sentinelInfoReplyCallback, ptr noundef %86, ptr noundef @.str.204, ptr noundef %88)
  store i32 %89, ptr %6, align 4, !tbaa !82
  %90 = load i32, ptr %6, align 4, !tbaa !82
  %91 = icmp eq i32 %90, 0
  br i1 %91, label %92, label %99

92:                                               ; preds = %80
  %93 = load ptr, ptr %2, align 8, !tbaa !11
  %94 = getelementptr inbounds nuw %struct.sentinelRedisInstance, ptr %93, i32 0, i32 5
  %95 = load ptr, ptr %94, align 8, !tbaa !22
  %96 = getelementptr inbounds nuw %struct.instanceLink, ptr %95, i32 0, i32 2
  %97 = load i32, ptr %96, align 8, !tbaa !134
  %98 = add nsw i32 %97, 1
  store i32 %98, ptr %96, align 8, !tbaa !134
  br label %99

99:                                               ; preds = %92, %80
  br label %100

100:                                              ; preds = %99, %72, %61
  %101 = load i64, ptr %3, align 8, !tbaa !119
  %102 = load ptr, ptr %2, align 8, !tbaa !11
  %103 = getelementptr inbounds nuw %struct.sentinelRedisInstance, ptr %102, i32 0, i32 5
  %104 = load ptr, ptr %103, align 8, !tbaa !22
  %105 = getelementptr inbounds nuw %struct.instanceLink, ptr %104, i32 0, i32 11
  %106 = load i64, ptr %105, align 8, !tbaa !144
  %107 = sub nsw i64 %101, %106
  %108 = load i64, ptr %5, align 8, !tbaa !119
  %109 = icmp sgt i64 %107, %108
  br i1 %109, label %110, label %124

110:                                              ; preds = %100
  %111 = load i64, ptr %3, align 8, !tbaa !119
  %112 = load ptr, ptr %2, align 8, !tbaa !11
  %113 = getelementptr inbounds nuw %struct.sentinelRedisInstance, ptr %112, i32 0, i32 5
  %114 = load ptr, ptr %113, align 8, !tbaa !22
  %115 = getelementptr inbounds nuw %struct.instanceLink, ptr %114, i32 0, i32 10
  %116 = load i64, ptr %115, align 8, !tbaa !142
  %117 = sub nsw i64 %111, %116
  %118 = load i64, ptr %5, align 8, !tbaa !119
  %119 = sdiv i64 %118, 2
  %120 = icmp sgt i64 %117, %119
  br i1 %120, label %121, label %124

121:                                              ; preds = %110
  %122 = load ptr, ptr %2, align 8, !tbaa !11
  %123 = call i32 @sentinelSendPing(ptr noundef %122)
  br label %124

124:                                              ; preds = %121, %110, %100
  %125 = load i64, ptr %3, align 8, !tbaa !119
  %126 = load ptr, ptr %2, align 8, !tbaa !11
  %127 = getelementptr inbounds nuw %struct.sentinelRedisInstance, ptr %126, i32 0, i32 6
  %128 = load i64, ptr %127, align 8, !tbaa !175
  %129 = sub nsw i64 %125, %128
  %130 = load i64, ptr @sentinel_publish_period, align 8, !tbaa !119
  %131 = icmp sgt i64 %129, %130
  br i1 %131, label %132, label %135

132:                                              ; preds = %124
  %133 = load ptr, ptr %2, align 8, !tbaa !11
  %134 = call i32 @sentinelSendHello(ptr noundef %133)
  br label %135

135:                                              ; preds = %132, %124
  store i32 0, ptr %7, align 4
  br label %136

136:                                              ; preds = %135, %29, %15
  call void @llvm.lifetime.end.p0(i64 4, ptr %6) #16
  call void @llvm.lifetime.end.p0(i64 8, ptr %5) #16
  call void @llvm.lifetime.end.p0(i64 8, ptr %4) #16
  call void @llvm.lifetime.end.p0(i64 8, ptr %3) #16
  %137 = load i32, ptr %7, align 4
  switch i32 %137, label %139 [
    i32 0, label %138
    i32 1, label %138
  ]

138:                                              ; preds = %136, %136
  ret void

139:                                              ; preds = %136
  unreachable
}