; Function Attrs: nounwind uwtable
define dso_local void @sentinelSendPeriodicCommands(ptr noundef %0) local_unnamed_addr #0 {
  %2 = tail call i64 @mstime() #30
  %3 = getelementptr inbounds nuw i8, ptr %0, i64 40
  %4 = load ptr, ptr %3, align 8, !tbaa !19
  %5 = getelementptr inbounds nuw i8, ptr %4, i64 4
  %6 = load i32, ptr %5, align 4, !tbaa !117
  %.not = icmp eq i32 %6, 0
  br i1 %.not, label %7, label %75

7:                                                ; preds = %1
  %8 = getelementptr inbounds nuw i8, ptr %4, i64 8
  %9 = load i32, ptr %8, align 8, !tbaa !118
  %10 = load i32, ptr %4, align 8, !tbaa !114
  %11 = mul nsw i32 %10, 100
  %.not31 = icmp slt i32 %9, %11
  br i1 %.not31, label %12, label %75

12:                                               ; preds = %7
  %13 = load i32, ptr %0, align 8, !tbaa !34
  %14 = and i32 %13, 2
  %.not32 = icmp eq i32 %14, 0
  br i1 %.not32, label %23, label %15

15:                                               ; preds = %12
  %16 = getelementptr inbounds nuw i8, ptr %0, i64 216
  %17 = load ptr, ptr %16, align 8, !tbaa !35
  %18 = load i32, ptr %17, align 8, !tbaa !34
  %19 = and i32 %18, 80
  %.not33 = icmp eq i32 %19, 0
  br i1 %.not33, label %20, label %25

20:                                               ; preds = %15
  %21 = getelementptr inbounds nuw i8, ptr %0, i64 192
  %22 = load i64, ptr %21, align 8, !tbaa !237
  %.not34 = icmp eq i64 %22, 0
  br i1 %.not34, label %23, label %25

23:                                               ; preds = %20, %12
  %24 = load i64, ptr @sentinel_info_period, align 8, !tbaa !107
  br label %25

25:                                               ; preds = %15, %20, %23
  %.0 = phi i64 [ %24, %23 ], [ 1000, %20 ], [ 1000, %15 ]
  %26 = getelementptr inbounds nuw i8, ptr %0, i64 88
  %27 = load i64, ptr %26, align 8, !tbaa !154
  %28 = load i64, ptr @sentinel_ping_period, align 8, !tbaa !107
  %spec.select = tail call i64 @llvm.smin.i64(i64 %27, i64 %28)
  %29 = and i32 %13, 4
  %30 = icmp eq i32 %29, 0
  br i1 %30, label %31, label %53

31:                                               ; preds = %25
  %32 = getelementptr inbounds nuw i8, ptr %0, i64 112
  %33 = load i64, ptr %32, align 8, !tbaa !163
  %34 = icmp eq i64 %33, 0
  %35 = sub nsw i64 %2, %33
  %36 = icmp sgt i64 %35, %.0
  %or.cond = select i1 %34, i1 true, i1 %36
  br i1 %or.cond, label %37, label %53

37:                                               ; preds = %31
  %38 = getelementptr inbounds nuw i8, ptr %4, i64 16
  %39 = load ptr, ptr %38, align 8, !tbaa !124
  %40 = tail call ptr @sdsnew(ptr noundef nonnull @.str.206) #30
  %41 = getelementptr inbounds nuw i8, ptr %0, i64 216
  %42 = load ptr, ptr %41, align 8, !tbaa !35
  %.not.i = icmp eq ptr %42, null
  %spec.select.i = select i1 %.not.i, ptr %0, ptr %42
  %43 = getelementptr inbounds nuw i8, ptr %spec.select.i, i64 120
  %44 = load ptr, ptr %43, align 8, !tbaa !33
  %45 = tail call ptr @dictFetchValue(ptr noundef %44, ptr noundef %40) #30
  tail call void @sdsfree(ptr noundef %40) #30
  %.not10.i = icmp eq ptr %45, null
  %46 = select i1 %.not10.i, ptr @.str.206, ptr %45
  %47 = tail call i32 (ptr, ptr, ptr, ptr, ...) @redisAsyncCommand(ptr noundef %39, ptr noundef nonnull @sentinelInfoReplyCallback, ptr noundef nonnull %0, ptr noundef nonnull @.str.204, ptr noundef nonnull %46) #30
  %48 = icmp eq i32 %47, 0
  %.pre = load ptr, ptr %3, align 8, !tbaa !19
  br i1 %48, label %49, label %53

49:                                               ; preds = %37
  %50 = getelementptr inbounds nuw i8, ptr %.pre, i64 8
  %51 = load i32, ptr %50, align 8, !tbaa !118
  %52 = add nsw i32 %51, 1
  store i32 %52, ptr %50, align 8, !tbaa !118
  br label %53

53:                                               ; preds = %31, %37, %49, %25
  %54 = phi ptr [ %4, %31 ], [ %.pre, %37 ], [ %.pre, %49 ], [ %4, %25 ]
  %55 = getelementptr inbounds nuw i8, ptr %54, i64 80
  %56 = load i64, ptr %55, align 8, !tbaa !123
  %57 = sub nsw i64 %2, %56
  %58 = icmp sgt i64 %57, %spec.select
  br i1 %58, label %59, label %67

59:                                               ; preds = %53
  %60 = getelementptr inbounds nuw i8, ptr %54, i64 72
  %61 = load i64, ptr %60, align 8, !tbaa !121
  %62 = sub nsw i64 %2, %61
  %63 = sdiv i64 %spec.select, 2
  %64 = icmp sgt i64 %62, %63
  br i1 %64, label %65, label %67

65:                                               ; preds = %59
  %66 = tail call i32 @sentinelSendPing(ptr noundef nonnull %0)
  br label %67

67:                                               ; preds = %65, %59, %53
  %68 = getelementptr inbounds nuw i8, ptr %0, i64 48
  %69 = load i64, ptr %68, align 8, !tbaa !151
  %70 = sub nsw i64 %2, %69
  %71 = load i64, ptr @sentinel_publish_period, align 8, !tbaa !107
  %72 = icmp sgt i64 %70, %71
  br i1 %72, label %73, label %75

73:                                               ; preds = %67
  %74 = tail call i32 @sentinelSendHello(ptr noundef nonnull %0)
  br label %75

75:                                               ; preds = %67, %73, %7, %1
  ret void
}